; ModuleID = 'source-C-CXX/23/2300.cpp'
source_filename = "source-C-CXX/23/2300.cpp"
target datalayout = "e-m:e-p270:32:32-p271:32:32-p272:64:64-i64:64-f80:128-n8:16:32:64-S128"
target triple = "x86_64-pc-linux-gnu"

%"class.std::ios_base::Init" = type { i8 }
%"class.std::basic_ostream" = type { i32 (...)**, %"class.std::basic_ios" }
%"class.std::basic_ios" = type { %"class.std::ios_base", %"class.std::basic_ostream"*, i8, i8, %"class.std::basic_streambuf"*, %"class.std::ctype"*, %"class.std::num_put"*, %"class.std::num_get"* }
%"class.std::ios_base" = type { i32 (...)**, i64, i64, i32, i32, i32, %"struct.std::ios_base::_Callback_list"*, %"struct.std::ios_base::_Words", [8 x %"struct.std::ios_base::_Words"], i32, %"struct.std::ios_base::_Words"*, %"class.std::locale" }
%"struct.std::ios_base::_Callback_list" = type { %"struct.std::ios_base::_Callback_list"*, void (i32, %"class.std::ios_base"*, i32)*, i32, i32 }
%"struct.std::ios_base::_Words" = type { i8*, i64 }
%"class.std::locale" = type { %"class.std::locale::_Impl"* }
%"class.std::locale::_Impl" = type { i32, %"class.std::locale::facet"**, i64, %"class.std::locale::facet"**, i8** }
%"class.std::locale::facet" = type <{ i32 (...)**, i32, [4 x i8] }>
%"class.std::basic_streambuf" = type { i32 (...)**, i8*, i8*, i8*, i8*, i8*, i8*, %"class.std::locale" }
%"class.std::ctype" = type <{ %"class.std::locale::facet.base", [4 x i8], %struct.__locale_struct*, i8, [7 x i8], i32*, i32*, i16*, i8, [256 x i8], [256 x i8], i8, [6 x i8] }>
%"class.std::locale::facet.base" = type <{ i32 (...)**, i32 }>
%struct.__locale_struct = type { [13 x %struct.__locale_data*], i16*, i32*, i32*, [13 x i8*] }
%struct.__locale_data = type opaque
%"class.std::num_put" = type { %"class.std::locale::facet.base", [4 x i8] }
%"class.std::num_get" = type { %"class.std::locale::facet.base", [4 x i8] }

@_ZStL8__ioinit = internal global %"class.std::ios_base::Init" zeroinitializer, align 1
@__dso_handle = external hidden global i8
@.str = private unnamed_addr constant [3 x i8] c"%s\00", align 1
@_ZSt4cout = external global %"class.std::basic_ostream", align 8
@llvm.global_ctors = appending global [1 x { i32, void ()*, i8* }] [{ i32, void ()*, i8* } { i32 65535, void ()* @_GLOBAL__sub_I_2300.cpp, i8* null }]

declare void @_ZNSt8ios_base4InitC1Ev(%"class.std::ios_base::Init"* nonnull align 1 dereferenceable(1)) unnamed_addr #0

; Function Attrs: nounwind
declare void @_ZNSt8ios_base4InitD1Ev(%"class.std::ios_base::Init"* nonnull align 1 dereferenceable(1)) unnamed_addr #1

; Function Attrs: nofree nounwind
declare i32 @__cxa_atexit(void (i8*)*, i8*, i8*) local_unnamed_addr #2

; Function Attrs: mustprogress norecurse sspstrong uwtable
define dso_local i32 @main() local_unnamed_addr #3 {
  %1 = alloca [200 x [100 x i8]], align 16
  %2 = getelementptr inbounds [200 x [100 x i8]], [200 x [100 x i8]]* %1, i64 0, i64 0, i64 0
  call void @llvm.lifetime.start.p0i8(i64 20000, i8* nonnull %2) #9
  %3 = call i32 (i8*, ...) @__isoc99_scanf(i8* getelementptr inbounds ([3 x i8], [3 x i8]* @.str, i64 0, i64 0), i8* nonnull %2)
  %4 = icmp eq i32 %3, -1
  br i1 %4, label %28, label %5

5:                                                ; preds = %0, %5
  %6 = phi i64 [ %21, %5 ], [ 0, %0 ]
  %7 = phi i8* [ %22, %5 ], [ %2, %0 ]
  %8 = phi i32 [ %20, %5 ], [ 100, %0 ]
  %9 = phi i32 [ %19, %5 ], [ 0, %0 ]
  %10 = phi i32 [ %17, %5 ], [ 0, %0 ]
  %11 = phi i32 [ %15, %5 ], [ 0, %0 ]
  %12 = call i64 @strlen(i8* noundef nonnull %7) #10
  %13 = trunc i64 %12 to i32
  %14 = icmp slt i32 %11, %13
  %15 = select i1 %14, i32 %13, i32 %11
  %16 = trunc i64 %6 to i32
  %17 = select i1 %14, i32 %16, i32 %10
  %18 = icmp sgt i32 %8, %13
  %19 = select i1 %18, i32 %16, i32 %9
  %20 = select i1 %18, i32 %13, i32 %8
  %21 = add nuw i64 %6, 1
  %22 = getelementptr inbounds [200 x [100 x i8]], [200 x [100 x i8]]* %1, i64 0, i64 %21, i64 0
  %23 = call i32 (i8*, ...) @__isoc99_scanf(i8* getelementptr inbounds ([3 x i8], [3 x i8]* @.str, i64 0, i64 0), i8* nonnull %22)
  %24 = icmp eq i32 %23, -1
  br i1 %24, label %25, label %5, !llvm.loop !5

25:                                               ; preds = %5
  %26 = sext i32 %17 to i64
  %27 = sext i32 %19 to i64
  br label %28

28:                                               ; preds = %25, %0
  %29 = phi i64 [ 0, %0 ], [ %26, %25 ]
  %30 = phi i64 [ 0, %0 ], [ %27, %25 ]
  %31 = getelementptr inbounds [200 x [100 x i8]], [200 x [100 x i8]]* %1, i64 0, i64 %29, i64 0
  %32 = call i64 @strlen(i8* noundef nonnull dereferenceable(1) %31) #9
  %33 = call nonnull align 8 dereferenceable(8) %"class.std::basic_ostream"* @_ZSt16__ostream_insertIcSt11char_traitsIcEERSt13basic_ostreamIT_T0_ES6_PKS3_l(%"class.std::basic_ostream"* nonnull align 8 dereferenceable(8) @_ZSt4cout, i8* nonnull %31, i64 %32)
  %34 = load i8*, i8** bitcast (%"class.std::basic_ostream"* @_ZSt4cout to i8**), align 8, !tbaa !7
  %35 = getelementptr i8, i8* %34, i64 -24
  %36 = bitcast i8* %35 to i64*
  %37 = load i64, i64* %36, align 8
  %38 = add nsw i64 %37, 240
  %39 = getelementptr inbounds i8, i8* bitcast (%"class.std::basic_ostream"* @_ZSt4cout to i8*), i64 %38
  %40 = bitcast i8* %39 to %"class.std::ctype"**
  %41 = load %"class.std::ctype"*, %"class.std::ctype"** %40, align 8, !tbaa !10
  %42 = icmp eq %"class.std::ctype"* %41, null
  br i1 %42, label %43, label %44

43:                                               ; preds = %28
  call void @_ZSt16__throw_bad_castv() #11
  unreachable

44:                                               ; preds = %28
  %45 = getelementptr inbounds %"class.std::ctype", %"class.std::ctype"* %41, i64 0, i32 8
  %46 = load i8, i8* %45, align 8, !tbaa !15
  %47 = icmp eq i8 %46, 0
  br i1 %47, label %51, label %48

48:                                               ; preds = %44
  %49 = getelementptr inbounds %"class.std::ctype", %"class.std::ctype"* %41, i64 0, i32 9, i64 10
  %50 = load i8, i8* %49, align 1, !tbaa !17
  br label %57

51:                                               ; preds = %44
  call void @_ZNKSt5ctypeIcE13_M_widen_initEv(%"class.std::ctype"* nonnull align 8 dereferenceable(570) %41)
  %52 = bitcast %"class.std::ctype"* %41 to i8 (%"class.std::ctype"*, i8)***
  %53 = load i8 (%"class.std::ctype"*, i8)**, i8 (%"class.std::ctype"*, i8)*** %52, align 8, !tbaa !7
  %54 = getelementptr inbounds i8 (%"class.std::ctype"*, i8)*, i8 (%"class.std::ctype"*, i8)** %53, i64 6
  %55 = load i8 (%"class.std::ctype"*, i8)*, i8 (%"class.std::ctype"*, i8)** %54, align 8
  %56 = call signext i8 %55(%"class.std::ctype"* nonnull align 8 dereferenceable(570) %41, i8 signext 10)
  br label %57

57:                                               ; preds = %48, %51
  %58 = phi i8 [ %50, %48 ], [ %56, %51 ]
  %59 = call nonnull align 8 dereferenceable(8) %"class.std::basic_ostream"* @_ZNSo3putEc(%"class.std::basic_ostream"* nonnull align 8 dereferenceable(8) @_ZSt4cout, i8 signext %58)
  %60 = call nonnull align 8 dereferenceable(8) %"class.std::basic_ostream"* @_ZNSo5flushEv(%"class.std::basic_ostream"* nonnull align 8 dereferenceable(8) %59)
  %61 = getelementptr inbounds [200 x [100 x i8]], [200 x [100 x i8]]* %1, i64 0, i64 %30, i64 0
  %62 = call i64 @strlen(i8* noundef nonnull dereferenceable(1) %61) #9
  %63 = call nonnull align 8 dereferenceable(8) %"class.std::basic_ostream"* @_ZSt16__ostream_insertIcSt11char_traitsIcEERSt13basic_ostreamIT_T0_ES6_PKS3_l(%"class.std::basic_ostream"* nonnull align 8 dereferenceable(8) @_ZSt4cout, i8* nonnull %61, i64 %62)
  %64 = load i8*, i8** bitcast (%"class.std::basic_ostream"* @_ZSt4cout to i8**), align 8, !tbaa !7
  %65 = getelementptr i8, i8* %64, i64 -24
  %66 = bitcast i8* %65 to i64*
  %67 = load i64, i64* %66, align 8
  %68 = add nsw i64 %67, 240
  %69 = getelementptr inbounds i8, i8* bitcast (%"class.std::basic_ostream"* @_ZSt4cout to i8*), i64 %68
  %70 = bitcast i8* %69 to %"class.std::ctype"**
  %71 = load %"class.std::ctype"*, %"class.std::ctype"** %70, align 8, !tbaa !10
  %72 = icmp eq %"class.std::ctype"* %71, null
  br i1 %72, label %73, label %74

73:                                               ; preds = %57
  call void @_ZSt16__throw_bad_castv() #11
  unreachable

74:                                               ; preds = %57
  %75 = getelementptr inbounds %"class.std::ctype", %"class.std::ctype"* %71, i64 0, i32 8
  %76 = load i8, i8* %75, align 8, !tbaa !15
  %77 = icmp eq i8 %76, 0
  br i1 %77, label %81, label %78

78:                                               ; preds = %74
  %79 = getelementptr inbounds %"class.std::ctype", %"class.std::ctype"* %71, i64 0, i32 9, i64 10
  %80 = load i8, i8* %79, align 1, !tbaa !17
  br label %87

81:                                               ; preds = %74
  call void @_ZNKSt5ctypeIcE13_M_widen_initEv(%"class.std::ctype"* nonnull align 8 dereferenceable(570) %71)
  %82 = bitcast %"class.std::ctype"* %71 to i8 (%"class.std::ctype"*, i8)***
  %83 = load i8 (%"class.std::ctype"*, i8)**, i8 (%"class.std::ctype"*, i8)*** %82, align 8, !tbaa !7
  %84 = getelementptr inbounds i8 (%"class.std::ctype"*, i8)*, i8 (%"class.std::ctype"*, i8)** %83, i64 6
  %85 = load i8 (%"class.std::ctype"*, i8)*, i8 (%"class.std::ctype"*, i8)** %84, align 8
  %86 = call signext i8 %85(%"class.std::ctype"* nonnull align 8 dereferenceable(570) %71, i8 signext 10)
  br label %87

87:                                               ; preds = %78, %81
  %88 = phi i8 [ %80, %78 ], [ %86, %81 ]
  %89 = call nonnull align 8 dereferenceable(8) %"class.std::basic_ostream"* @_ZNSo3putEc(%"class.std::basic_ostream"* nonnull align 8 dereferenceable(8) @_ZSt4cout, i8 signext %88)
  %90 = call nonnull align 8 dereferenceable(8) %"class.std::basic_ostream"* @_ZNSo5flushEv(%"class.std::basic_ostream"* nonnull align 8 dereferenceable(8) %89)
  call void @llvm.lifetime.end.p0i8(i64 20000, i8* nonnull %2) #9
  ret i32 0
}

; Function Attrs: argmemonly mustprogress nofree nosync nounwind willreturn
declare void @llvm.lifetime.start.p0i8(i64 immarg, i8* nocapture) #4

; Function Attrs: nofree nounwind
declare noundef i32 @__isoc99_scanf(i8* nocapture noundef readonly, ...) local_unnamed_addr #5

; Function Attrs: argmemonly mustprogress nofree nounwind readonly willreturn
declare i64 @strlen(i8* nocapture) local_unnamed_addr #6

; Function Attrs: argmemonly mustprogress nofree nosync nounwind willreturn
declare void @llvm.lifetime.end.p0i8(i64 immarg, i8* nocapture) #4

declare nonnull align 8 dereferenceable(8) %"class.std::basic_ostream"* @_ZSt16__ostream_insertIcSt11char_traitsIcEERSt13basic_ostreamIT_T0_ES6_PKS3_l(%"class.std::basic_ostream"* nonnull align 8 dereferenceable(8), i8*, i64) local_unnamed_addr #0

declare nonnull align 8 dereferenceable(8) %"class.std::basic_ostream"* @_ZNSo3putEc(%"class.std::basic_ostream"* nonnull align 8 dereferenceable(8), i8 signext) local_unnamed_addr #0

declare nonnull align 8 dereferenceable(8) %"class.std::basic_ostream"* @_ZNSo5flushEv(%"class.std::basic_ostream"* nonnull align 8 dereferenceable(8)) local_unnamed_addr #0

; Function Attrs: noreturn
declare void @_ZSt16__throw_bad_castv() local_unnamed_addr #7

declare void @_ZNKSt5ctypeIcE13_M_widen_initEv(%"class.std::ctype"* nonnull align 8 dereferenceable(570)) local_unnamed_addr #0

; Function Attrs: sspstrong uwtable
define internal void @_GLOBAL__sub_I_2300.cpp() #8 section ".text.startup" {
  tail call void @_ZNSt8ios_base4InitC1Ev(%"class.std::ios_base::Init"* nonnull align 1 dereferenceable(1) @_ZStL8__ioinit)
  %1 = tail call i32 @__cxa_atexit(void (i8*)* bitcast (void (%"class.std::ios_base::Init"*)* @_ZNSt8ios_base4InitD1Ev to void (i8*)*), i8* getelementptr inbounds (%"class.std::ios_base::Init", %"class.std::ios_base::Init"* @_ZStL8__ioinit, i64 0, i32 0), i8* nonnull @__dso_handle) #9
  ret void
}


!llvm.module.flags = !{!0, !1, !2, !3}
!llvm.ident = !{!4}

!0 = !{i32 1, !"wchar_size", i32 4}
!1 = !{i32 7, !"PIC Level", i32 2}
!2 = !{i32 7, !"PIE Level", i32 2}
!3 = !{i32 7, !"uwtable", i32 1}
!4 = !{!"clang version 13.0.0"}
!5 = distinct !{!5, !6}
!6 = !{!"llvm.loop.mustprogress"}
!7 = !{!8, !8, i64 0}
!8 = !{!"vtable pointer", !9, i64 0}
!9 = !{!"Simple C++ TBAA"}
!10 = !{!11, !12, i64 240}
!11 = !{!"_ZTSSt9basic_iosIcSt11char_traitsIcEE", !12, i64 216, !13, i64 224, !14, i64 225, !12, i64 232, !12, i64 240, !12, i64 248, !12, i64 256}
!12 = !{!"any pointer", !13, i64 0}
!13 = !{!"omnipotent char", !9, i64 0}
!14 = !{!"bool", !13, i64 0}
!15 = !{!16, !13, i64 56}
!16 = !{!"_ZTSSt5ctypeIcE", !12, i64 16, !14, i64 24, !12, i64 32, !12, i64 40, !12, i64 48, !13, i64 56, !13, i64 57, !13, i64 313, !13, i64 569}
!17 = !{!13, !13, i64 0}
